target datalayout = "e-m:e-p270:32:32-p271:32:32-p272:64:64-i64:64-i128:128-f80:128-n8:16:32:64-S128"
target triple = "x86_64-pc-linux-gnu"

%struct.ResourceOwnerDesc = type { ptr, i32, i32, ptr, ptr }
%struct.WaitEventSet = type { ptr, i32, i32, ptr, ptr, i32, i8, i32, ptr }

@.str.1 = private unnamed_addr constant [8 x i8] c"latch.c\00", align 1
@TopMemoryContext = external global ptr, align 8
@.str.3 = private unnamed_addr constant [49 x i8] c"AcquireExternalFD, for epoll_create1, failed: %m\00", align 1
@__func__.CreateWaitEventSet = private unnamed_addr constant [19 x i8] c"CreateWaitEventSet\00", align 1
@.str.4 = private unnamed_addr constant [25 x i8] c"epoll_create1 failed: %m\00", align 1
@wait_event_set_resowner_desc = internal constant %struct.ResourceOwnerDesc { ptr @.str.12, i32 3, i32 700, ptr @ResOwnerReleaseWaitEventSet, ptr null }, align 8

; Function Attrs: inlinehint nounwind uwtable
define internal i64 @PointerGetDatum(ptr noundef %0) #5 {
  %2 = alloca ptr, align 8
  store ptr %0, ptr %2, align 8
  %3 = load ptr, ptr %2, align 8
  %4 = ptrtoint ptr %3 to i64
  ret i64 %4
}

; Function Attrs: inlinehint nounwind uwtable
define internal void @ResourceOwnerRememberWaitEventSet(ptr noundef %0, ptr noundef %1) #5 {
  %3 = alloca ptr, align 8
  %4 = alloca ptr, align 8
  store ptr %0, ptr %3, align 8
  store ptr %1, ptr %4, align 8
  %5 = load ptr, ptr %3, align 8
  %6 = load ptr, ptr %4, align 8
  %7 = call i64 @PointerGetDatum(ptr noundef %6)
  call void @ResourceOwnerRemember(ptr noundef %5, i64 noundef %7, ptr noundef @wait_event_set_resowner_desc)
  ret void
}

; Function Attrs: nounwind uwtable
define dso_local ptr @CreateWaitEventSet(ptr noundef %0, i32 noundef %1) #0 {
  %3 = alloca ptr, align 8
  %4 = alloca i32, align 4
  %5 = alloca ptr, align 8
  %6 = alloca ptr, align 8
  %7 = alloca i64, align 8
  store ptr %0, ptr %3, align 8
  store i32 %1, ptr %4, align 4
  call void @llvm.lifetime.start.p0(i64 8, ptr %5) #9
  call void @llvm.lifetime.start.p0(i64 8, ptr %6) #9
  call void @llvm.lifetime.start.p0(i64 8, ptr %7) #9
  store i64 0, ptr %7, align 8
  %8 = load i64, ptr %7, align 8
  %9 = add i64 %8, 56
  store i64 %9, ptr %7, align 8
  %10 = load i32, ptr %4, align 4
  %11 = sext i32 %10 to i64
  %12 = mul i64 24, %11
  %13 = add i64 %12, 7
  %14 = and i64 %13, -8
  %15 = load i64, ptr %7, align 8
  %16 = add i64 %15, %14
  store i64 %16, ptr %7, align 8
  %17 = load i32, ptr %4, align 4
  %18 = sext i32 %17 to i64
  %19 = mul i64 12, %18
  %20 = add i64 %19, 7
  %21 = and i64 %20, -8
  %22 = load i64, ptr %7, align 8
  %23 = add i64 %22, %21
  store i64 %23, ptr %7, align 8
  %24 = load ptr, ptr %3, align 8
  %25 = icmp ne ptr %24, null
  br i1 %25, label %26, label %28

26:                                               ; preds = %2
  %27 = load ptr, ptr %3, align 8
  call void @ResourceOwnerEnlarge(ptr noundef %27)
  br label %28

28:                                               ; preds = %26, %2
  %29 = load ptr, ptr @TopMemoryContext, align 8
  %30 = load i64, ptr %7, align 8
  %31 = call ptr @MemoryContextAllocZero(ptr noundef %29, i64 noundef %30)
  store ptr %31, ptr %6, align 8
  %32 = load ptr, ptr %6, align 8
  store ptr %32, ptr %5, align 8
  %33 = load ptr, ptr %6, align 8
  %34 = getelementptr inbounds nuw i8, ptr %33, i64 56
  store ptr %34, ptr %6, align 8
  %35 = load ptr, ptr %6, align 8
  %36 = load ptr, ptr %5, align 8
  %37 = getelementptr inbounds nuw %struct.WaitEventSet, ptr %36, i32 0, i32 3
  store ptr %35, ptr %37, align 8
  %38 = load i32, ptr %4, align 4
  %39 = sext i32 %38 to i64
  %40 = mul i64 24, %39
  %41 = add i64 %40, 7
  %42 = and i64 %41, -8
  %43 = load ptr, ptr %6, align 8
  %44 = getelementptr inbounds nuw i8, ptr %43, i64 %42
  store ptr %44, ptr %6, align 8
  %45 = load ptr, ptr %6, align 8
  %46 = load ptr, ptr %5, align 8
  %47 = getelementptr inbounds nuw %struct.WaitEventSet, ptr %46, i32 0, i32 8
  store ptr %45, ptr %47, align 8
  %48 = load i32, ptr %4, align 4
  %49 = sext i32 %48 to i64
  %50 = mul i64 12, %49
  %51 = add i64 %50, 7
  %52 = and i64 %51, -8
  %53 = load ptr, ptr %6, align 8
  %54 = getelementptr inbounds nuw i8, ptr %53, i64 %52
  store ptr %54, ptr %6, align 8
  %55 = load ptr, ptr %5, align 8
  %56 = getelementptr inbounds nuw %struct.WaitEventSet, ptr %55, i32 0, i32 4
  store ptr null, ptr %56, align 8
  %57 = load i32, ptr %4, align 4
  %58 = load ptr, ptr %5, align 8
  %59 = getelementptr inbounds nuw %struct.WaitEventSet, ptr %58, i32 0, i32 2
  store i32 %57, ptr %59, align 4
  %60 = load ptr, ptr %5, align 8
  %61 = getelementptr inbounds nuw %struct.WaitEventSet, ptr %60, i32 0, i32 6
  store i8 0, ptr %61, align 4
  %62 = load ptr, ptr %3, align 8
  %63 = icmp ne ptr %62, null
  br i1 %63, label %64, label %70

64:                                               ; preds = %28
  %65 = load ptr, ptr %3, align 8
  %66 = load ptr, ptr %5, align 8
  call void @ResourceOwnerRememberWaitEventSet(ptr noundef %65, ptr noundef %66)
  %67 = load ptr, ptr %3, align 8
  %68 = load ptr, ptr %5, align 8
  %69 = getelementptr inbounds nuw %struct.WaitEventSet, ptr %68, i32 0, i32 0
  store ptr %67, ptr %69, align 8
  br label %70

70:                                               ; preds = %64, %28
  %71 = call zeroext i1 @AcquireExternalFD()
  br i1 %71, label %83, label %72

72:                                               ; preds = %70
  br label %73

73:                                               ; preds = %72
  br i1 true, label %74, label %76

74:                                               ; preds = %73
  %75 = call zeroext i1 @errstart_cold(i32 noundef 21, ptr noundef null) #10
  br i1 %75, label %78, label %80

76:                                               ; preds = %73
  %77 = call zeroext i1 @errstart(i32 noundef 21, ptr noundef null)
  br i1 %77, label %78, label %80

78:                                               ; preds = %76, %74
  %79 = call i32 (ptr, ...) @errmsg_internal(ptr noundef @.str.3)
  call void @errfinish(ptr noundef @.str.1, i32 noundef 814, ptr noundef @__func__.CreateWaitEventSet)
  br label %80

80:                                               ; preds = %78, %76, %74
  unreachable

81:                                               ; No predecessors!
  br label %82

82:                                               ; preds = %81
  br label %83

83:                                               ; preds = %82, %70
  %84 = call i32 @epoll_create1(i32 noundef 524288) #9
  %85 = load ptr, ptr %5, align 8
  %86 = getelementptr inbounds nuw %struct.WaitEventSet, ptr %85, i32 0, i32 7
  store i32 %84, ptr %86, align 8
  %87 = load ptr, ptr %5, align 8
  %88 = getelementptr inbounds nuw %struct.WaitEventSet, ptr %87, i32 0, i32 7
  %89 = load i32, ptr %88, align 8
  %90 = icmp slt i32 %89, 0
  br i1 %90, label %91, label %102

91:                                               ; preds = %83
  call void @ReleaseExternalFD()
  br label %92

92:                                               ; preds = %91
  br i1 true, label %93, label %95

93:                                               ; preds = %92
  %94 = call zeroext i1 @errstart_cold(i32 noundef 21, ptr noundef null) #10
  br i1 %94, label %97, label %99

95:                                               ; preds = %92
  %96 = call zeroext i1 @errstart(i32 noundef 21, ptr noundef null)
  br i1 %96, label %97, label %99

97:                                               ; preds = %95, %93
  %98 = call i32 (ptr, ...) @errmsg_internal(ptr noundef @.str.4)
  call void @errfinish(ptr noundef @.str.1, i32 noundef 819, ptr noundef @__func__.CreateWaitEventSet)
  br label %99

99:                                               ; preds = %97, %95, %93
  unreachable

100:                                              ; No predecessors!
  br label %101

101:                                              ; preds = %100
  br label %102

102:                                              ; preds = %101, %83
  %103 = load ptr, ptr %5, align 8
  call void @llvm.lifetime.end.p0(i64 8, ptr %7) #9
  call void @llvm.lifetime.end.p0(i64 8, ptr %6) #9
  call void @llvm.lifetime.end.p0(i64 8, ptr %5) #9
  ret ptr %103
}