; Function Attrs: nounwind uwtable
define dso_local ptr @CreateWaitEventSet(ptr noundef %0, i32 noundef %1) local_unnamed_addr #0 {
  %3 = sext i32 %1 to i64
  %4 = mul nsw i64 %3, 24
  %5 = add nsw i64 %4, 56
  %6 = mul nsw i64 %3, 12
  %7 = add nsw i64 %6, 7
  %8 = and i64 %7, -8
  %9 = add nsw i64 %5, %8
  %.not = icmp eq ptr %0, null
  br i1 %.not, label %11, label %10

10:                                               ; preds = %2
  tail call void @ResourceOwnerEnlarge(ptr noundef nonnull %0) #14
  br label %11

11:                                               ; preds = %10, %2
  %12 = load ptr, ptr @TopMemoryContext, align 8
  %13 = tail call ptr @MemoryContextAllocZero(ptr noundef %12, i64 noundef %9) #14
  %14 = getelementptr inbounds nuw i8, ptr %13, i64 56
  %15 = getelementptr inbounds nuw i8, ptr %13, i64 16
  store ptr %14, ptr %15, align 8
  %16 = getelementptr inbounds nuw i8, ptr %14, i64 %4
  %17 = getelementptr inbounds nuw i8, ptr %13, i64 48
  store ptr %16, ptr %17, align 8
  %18 = getelementptr inbounds nuw i8, ptr %13, i64 24
  store ptr null, ptr %18, align 8
  %19 = getelementptr inbounds nuw i8, ptr %13, i64 12
  store i32 %1, ptr %19, align 4
  %20 = getelementptr inbounds nuw i8, ptr %13, i64 36
  store i8 0, ptr %20, align 4
  br i1 %.not, label %23, label %21

21:                                               ; preds = %11
  %22 = ptrtoint ptr %13 to i64
  tail call void @ResourceOwnerRemember(ptr noundef nonnull %0, i64 noundef %22, ptr noundef nonnull @wait_event_set_resowner_desc) #14
  store ptr %0, ptr %13, align 8
  br label %23

23:                                               ; preds = %21, %11
  %24 = tail call zeroext i1 @AcquireExternalFD() #14
  br i1 %24, label %28, label %25

25:                                               ; preds = %23
  %26 = tail call zeroext i1 @errstart_cold(i32 noundef 21, ptr noundef null) #15
  tail call void @llvm.assume(i1 %26)
  %27 = tail call i32 (ptr, ...) @errmsg_internal(ptr noundef nonnull @.str.3) #14
  tail call void @errfinish(ptr noundef nonnull @.str.1, i32 noundef 814, ptr noundef nonnull @__func__.CreateWaitEventSet) #14
  unreachable

28:                                               ; preds = %23
  %29 = tail call i32 @epoll_create1(i32 noundef 524288) #14
  %30 = getelementptr inbounds nuw i8, ptr %13, i64 40
  store i32 %29, ptr %30, align 8
  %31 = icmp slt i32 %29, 0
  br i1 %31, label %32, label %35

32:                                               ; preds = %28
  tail call void @ReleaseExternalFD() #14
  %33 = tail call zeroext i1 @errstart_cold(i32 noundef 21, ptr noundef null) #15
  tail call void @llvm.assume(i1 %33)
  %34 = tail call i32 (ptr, ...) @errmsg_internal(ptr noundef nonnull @.str.4) #14
  tail call void @errfinish(ptr noundef nonnull @.str.1, i32 noundef 819, ptr noundef nonnull @__func__.CreateWaitEventSet) #14
  unreachable

35:                                               ; preds = %28
  ret ptr %13
}